; Function Attrs: mustprogress nounwind uwtable
define dso_local void @_ZNK4llvm28TargetLoweringObjectFileCOFF18emitModuleMetadataERNS_10MCStreamerERNS_6ModuleE(ptr noundef nonnull align 8 dereferenceable(984) %0, ptr noundef nonnull align 8 dereferenceable(288) %1, ptr noundef nonnull align 8 dereferenceable(857) %2) unnamed_addr #0 align 2 {
  %4 = alloca i32, align 4
  %5 = alloca i32, align 4
  %6 = alloca %"class.llvm::StringRef", align 8
  %7 = alloca %"class.llvm::Twine", align 8
  tail call void @_ZNK4llvm28TargetLoweringObjectFileCOFF20emitLinkerDirectivesERNS_10MCStreamerERNS_6ModuleE(ptr noundef nonnull align 8 dereferenceable(984) %0, ptr noundef nonnull align 8 dereferenceable(288) %1, ptr noundef nonnull align 8 dereferenceable(857) %2)
  store i32 0, ptr %4, align 4
  store i32 0, ptr %5, align 4
  call void @llvm.memset.p0.i64(ptr noundef nonnull align 8 dereferenceable(16) %6, i8 0, i64 16, i1 false)
  call fastcc void @_ZL16GetObjCImageInfoRN4llvm6ModuleERjS2_RNS_9StringRefE(ptr noundef nonnull align 8 dereferenceable(857) %2, ptr noundef nonnull align 4 dereferenceable(4) %4, ptr noundef nonnull align 4 dereferenceable(4) %5, ptr noundef nonnull align 8 dereferenceable(16) %6)
  %8 = getelementptr inbounds nuw i8, ptr %6, i64 8
  %9 = load i64, ptr %8, align 8
  %10 = icmp eq i64 %9, 0
  br i1 %10, label %38, label %11

11:                                               ; preds = %3
  %12 = getelementptr inbounds nuw i8, ptr %0, i64 904
  %13 = load ptr, ptr %12, align 8
  %.sroa.0.0.copyload = load ptr, ptr %6, align 8
  %14 = tail call noundef ptr @_ZN4llvm9MCContext14getCOFFSectionENS_9StringRefEj(ptr noundef nonnull align 8 dereferenceable(2432) %13, ptr %.sroa.0.0.copyload, i64 %9, i32 noundef 1073741888) #24
  %15 = load ptr, ptr %1, align 8
  %16 = getelementptr inbounds i8, ptr %15, i64 168
  %17 = load ptr, ptr %16, align 8
  tail call void %17(ptr noundef nonnull align 8 dereferenceable(288) %1, ptr noundef %14, i32 noundef 0) #24
  %18 = getelementptr inbounds nuw i8, ptr %7, i64 32
  store i8 5, ptr %18, align 8
  %19 = getelementptr inbounds nuw i8, ptr %7, i64 33
  store i8 1, ptr %19, align 1
  store ptr @.str.9, ptr %7, align 8
  %20 = getelementptr inbounds nuw i8, ptr %7, i64 8
  store i64 15, ptr %20, align 8
  %21 = call noundef ptr @_ZN4llvm9MCContext17getOrCreateSymbolERKNS_5TwineE(ptr noundef nonnull align 8 dereferenceable(2432) %13, ptr noundef nonnull align 8 dereferenceable(34) %7) #24
  %22 = load ptr, ptr %1, align 8
  %23 = getelementptr inbounds i8, ptr %22, i64 200
  %24 = load ptr, ptr %23, align 8
  call void %24(ptr noundef nonnull align 8 dereferenceable(288) %1, ptr noundef %21, ptr null) #24
  %25 = load i32, ptr %4, align 4
  %26 = zext i32 %25 to i64
  %27 = load ptr, ptr %1, align 8
  %28 = getelementptr inbounds i8, ptr %27, i64 520
  %29 = load ptr, ptr %28, align 8
  call void %29(ptr noundef nonnull align 8 dereferenceable(288) %1, i64 noundef %26, i32 noundef 4) #24
  %30 = load i32, ptr %5, align 4
  %31 = zext i32 %30 to i64
  %32 = load ptr, ptr %1, align 8
  %33 = getelementptr inbounds i8, ptr %32, i64 520
  %34 = load ptr, ptr %33, align 8
  call void %34(ptr noundef nonnull align 8 dereferenceable(288) %1, i64 noundef %31, i32 noundef 4) #24
  %35 = load ptr, ptr %1, align 8
  %36 = getelementptr inbounds i8, ptr %35, i64 160
  %37 = load ptr, ptr %36, align 8
  call void %37(ptr noundef nonnull align 8 dereferenceable(288) %1) #24
  br label %38

38:                                               ; preds = %11, %3
  call void @_ZNK4llvm24TargetLoweringObjectFile21emitCGProfileMetadataERNS_10MCStreamerERNS_6ModuleE(ptr noundef nonnull align 8 dereferenceable(968) %0, ptr noundef nonnull align 8 dereferenceable(288) %1, ptr noundef nonnull align 8 dereferenceable(857) %2) #24
  ret void
}